; Function Attrs: mustprogress uwtable
define void @_ZN32pxrInternal_v0_24__pxrReserved__18Sdf_CleanupTrackerC2Ev(ptr noundef nonnull align 8 dereferenceable(32) %0) unnamed_addr #0 align 2 personality ptr @__gxx_personality_v0 {
  %2 = alloca %"struct.pxrInternal_v0_24__pxrReserved__::Tf_DiagnosticHelper", align 8
  tail call void @llvm.memset.p0.i64(ptr noundef nonnull align 8 dereferenceable(32) %0, i8 0, i64 32, i1 false)
  call void @llvm.lifetime.start.p0(i64 48, ptr nonnull %2)
  %3 = ptrtoint ptr %0 to i64
  %4 = atomicrmw xchg ptr @_ZN32pxrInternal_v0_24__pxrReserved__11TfSingletonINS_18Sdf_CleanupTrackerEE9_instanceE, i64 %3 seq_cst, align 8
  %.not.i = icmp eq i64 %4, 0
  br i1 %.not.i, label %7, label %5

5:                                                ; preds = %1
  store ptr @.str, ptr %2, align 8
  %.sroa.2.0..sroa_idx.i = getelementptr inbounds i8, ptr %2, i64 8
  store ptr @__func__._ZN32pxrInternal_v0_24__pxrReserved__11TfSingletonINS_18Sdf_CleanupTrackerEE22SetInstanceConstructedERS1_, ptr %.sroa.2.0..sroa_idx.i, align 8
  %.sroa.3.0..sroa_idx.i = getelementptr inbounds i8, ptr %2, i64 16
  store i64 54, ptr %.sroa.3.0..sroa_idx.i, align 8
  %.sroa.4.0..sroa_idx.i = getelementptr inbounds i8, ptr %2, i64 24
  store ptr @__PRETTY_FUNCTION__._ZN32pxrInternal_v0_24__pxrReserved__11TfSingletonINS_18Sdf_CleanupTrackerEE22SetInstanceConstructedERS1_, ptr %.sroa.4.0..sroa_idx.i, align 8
  %.sroa.5.0..sroa_idx.i = getelementptr inbounds i8, ptr %2, i64 32
  store i8 0, ptr %.sroa.5.0..sroa_idx.i, align 8
  %6 = getelementptr inbounds nuw i8, ptr %2, i64 40
  store i32 4, ptr %6, align 8
  invoke void (ptr, ptr, ...) @_ZNK32pxrInternal_v0_24__pxrReserved__19Tf_DiagnosticHelper15IssueFatalErrorEPKcz(ptr noundef nonnull align 8 dereferenceable(44) %2, ptr noundef nonnull @.str.1)
          to label %7 unwind label %8

7:                                                ; preds = %1, %5
  call void @llvm.lifetime.end.p0(i64 48, ptr nonnull %2)
  ret void

8:                                                ; preds = %5
  %9 = landingpad { ptr, i32 }
          cleanup
  %10 = getelementptr inbounds nuw i8, ptr %0, i64 8
  call void @_ZNSt6vectorIN32pxrInternal_v0_24__pxrReserved__9SdfHandleINS0_7SdfSpecEEESaIS3_EED2Ev(ptr noundef nonnull align 8 dereferenceable(24) %10) #12
  call void @_ZN32pxrInternal_v0_24__pxrReserved__10TfWeakBaseD2Ev(ptr noundef nonnull align 8 dereferenceable(8) %0) #12
  resume { ptr, i32 } %9
}